target datalayout = "e-m:e-p270:32:32-p271:32:32-p272:64:64-i64:64-i128:128-f80:128-n8:16:32:64-S128"
target triple = "x86_64-pc-linux-gnu"

%"class.dropbox::oxygen::nn.713" = type { %"class.std::unique_ptr.714" }
%"class.std::unique_ptr.714" = type { %"struct.std::__uniq_ptr_data.715" }
%"struct.std::__uniq_ptr_data.715" = type { %"class.std::__uniq_ptr_impl.716" }
%"class.std::__uniq_ptr_impl.716" = type { %"class.std::tuple.717" }
%"class.std::tuple.717" = type { %"struct.std::_Tuple_impl.718" }
%"struct.std::_Tuple_impl.718" = type { %"struct.std::_Head_base.721" }
%"struct.std::_Head_base.721" = type { ptr }
%struct.PJ_OPERATION_FACTORY_CONTEXT = type { %"class.dropbox::oxygen::nn.713" }

@_ZTISt9exception = external constant ptr
@.str.2 = private unnamed_addr constant [23 x i8] c"missing required input\00", align 1
@__FUNCTION__.proj_operation_factory_context_set_allow_use_intermediate_crs = private unnamed_addr constant [62 x i8] c"proj_operation_factory_context_set_allow_use_intermediate_crs\00", align 1

; Function Attrs: mustprogress nounwind uwtable
define linkonce_odr noundef nonnull align 8 dereferenceable(8) ptr @_ZNSt10_Head_baseILm0EPN5osgeo4proj9operation26CoordinateOperationContextELb0EE7_M_headERKS5_(ptr noundef nonnull align 8 dereferenceable(8) %0) #0 comdat align 2 {
  %2 = alloca ptr, align 8
  store ptr %0, ptr %2, align 8
  %3 = load ptr, ptr %2, align 8
  %4 = getelementptr inbounds %"struct.std::_Head_base.721", ptr %3, i32 0, i32 0
  ret ptr %4
}

; Function Attrs: mustprogress nounwind uwtable
define linkonce_odr noundef nonnull align 8 dereferenceable(8) ptr @_ZNSt11_Tuple_implILm0EJPN5osgeo4proj9operation26CoordinateOperationContextESt14default_deleteIS3_EEE7_M_headERKS7_(ptr noundef nonnull align 8 dereferenceable(8) %0) #0 comdat align 2 {
  %2 = alloca ptr, align 8
  store ptr %0, ptr %2, align 8
  %3 = load ptr, ptr %2, align 8
  %4 = call noundef nonnull align 8 dereferenceable(8) ptr @_ZNSt10_Head_baseILm0EPN5osgeo4proj9operation26CoordinateOperationContextELb0EE7_M_headERKS5_(ptr noundef nonnull align 8 dereferenceable(8) %3) #19
  ret ptr %4
}

; Function Attrs: mustprogress nounwind uwtable
define linkonce_odr noundef nonnull align 8 dereferenceable(8) ptr @_ZSt12__get_helperILm0EPN5osgeo4proj9operation26CoordinateOperationContextEJSt14default_deleteIS3_EEERKT0_RKSt11_Tuple_implIXT_EJS7_DpT1_EE(ptr noundef nonnull align 8 dereferenceable(8) %0) #0 comdat {
  %2 = alloca ptr, align 8
  store ptr %0, ptr %2, align 8
  %3 = load ptr, ptr %2, align 8
  %4 = call noundef nonnull align 8 dereferenceable(8) ptr @_ZNSt11_Tuple_implILm0EJPN5osgeo4proj9operation26CoordinateOperationContextESt14default_deleteIS3_EEE7_M_headERKS7_(ptr noundef nonnull align 8 dereferenceable(8) %3) #19
  ret ptr %4
}

; Function Attrs: mustprogress nounwind uwtable
define linkonce_odr noundef nonnull align 8 dereferenceable(8) ptr @_ZSt3getILm0EJPN5osgeo4proj9operation26CoordinateOperationContextESt14default_deleteIS3_EEERKNSt13tuple_elementIXT_ESt5tupleIJDpT0_EEE4typeERKSB_(ptr noundef nonnull align 8 dereferenceable(8) %0) #0 comdat {
  %2 = alloca ptr, align 8
  store ptr %0, ptr %2, align 8
  %3 = load ptr, ptr %2, align 8
  %4 = call noundef nonnull align 8 dereferenceable(8) ptr @_ZSt12__get_helperILm0EPN5osgeo4proj9operation26CoordinateOperationContextEJSt14default_deleteIS3_EEERKT0_RKSt11_Tuple_implIXT_EJS7_DpT1_EE(ptr noundef nonnull align 8 dereferenceable(8) %3) #19
  ret ptr %4
}

; Function Attrs: mustprogress nounwind uwtable
define linkonce_odr noundef ptr @_ZNKSt15__uniq_ptr_implIN5osgeo4proj9operation26CoordinateOperationContextESt14default_deleteIS3_EE6_M_ptrEv(ptr noundef nonnull align 8 dereferenceable(8) %0) #0 comdat align 2 {
  %2 = alloca ptr, align 8
  store ptr %0, ptr %2, align 8
  %3 = load ptr, ptr %2, align 8
  %4 = getelementptr inbounds %"class.std::__uniq_ptr_impl.716", ptr %3, i32 0, i32 0
  %5 = call noundef nonnull align 8 dereferenceable(8) ptr @_ZSt3getILm0EJPN5osgeo4proj9operation26CoordinateOperationContextESt14default_deleteIS3_EEERKNSt13tuple_elementIXT_ESt5tupleIJDpT0_EEE4typeERKSB_(ptr noundef nonnull align 8 dereferenceable(8) %4) #19
  %6 = load ptr, ptr %5, align 8
  ret ptr %6
}

; Function Attrs: mustprogress nounwind uwtable
define linkonce_odr noundef ptr @_ZNKSt10unique_ptrIN5osgeo4proj9operation26CoordinateOperationContextESt14default_deleteIS3_EE3getEv(ptr noundef nonnull align 8 dereferenceable(8) %0) #0 comdat align 2 {
  %2 = alloca ptr, align 8
  store ptr %0, ptr %2, align 8
  %3 = load ptr, ptr %2, align 8
  %4 = getelementptr inbounds %"class.std::unique_ptr.714", ptr %3, i32 0, i32 0
  %5 = call noundef ptr @_ZNKSt15__uniq_ptr_implIN5osgeo4proj9operation26CoordinateOperationContextESt14default_deleteIS3_EE6_M_ptrEv(ptr noundef nonnull align 8 dereferenceable(8) %4) #19
  ret ptr %5
}

; Function Attrs: mustprogress nounwind uwtable
define linkonce_odr noundef nonnull align 8 dereferenceable(16) ptr @_ZNKSt10unique_ptrIN5osgeo4proj9operation26CoordinateOperationContextESt14default_deleteIS3_EEdeEv(ptr noundef nonnull align 8 dereferenceable(8) %0) #0 comdat align 2 {
  %2 = alloca ptr, align 8
  store ptr %0, ptr %2, align 8
  %3 = load ptr, ptr %2, align 8
  br label %4

4:                                                ; preds = %1
  br label %5

5:                                                ; preds = %4
  br label %6

6:                                                ; preds = %5
  %7 = call noundef ptr @_ZNKSt10unique_ptrIN5osgeo4proj9operation26CoordinateOperationContextESt14default_deleteIS3_EE3getEv(ptr noundef nonnull align 8 dereferenceable(8) %3) #19
  ret ptr %7
}

; Function Attrs: mustprogress nounwind uwtable
define linkonce_odr hidden noundef ptr @_ZNK7dropbox6oxygen2nnISt10unique_ptrIN5osgeo4proj9operation26CoordinateOperationContextESt14default_deleteIS6_EEEptEv(ptr noundef nonnull align 8 dereferenceable(8) %0) #0 comdat align 2 {
  %2 = alloca ptr, align 8
  store ptr %0, ptr %2, align 8
  %3 = load ptr, ptr %2, align 8
  %4 = getelementptr inbounds %"class.dropbox::oxygen::nn.713", ptr %3, i32 0, i32 0
  %5 = call noundef nonnull align 8 dereferenceable(16) ptr @_ZNKSt10unique_ptrIN5osgeo4proj9operation26CoordinateOperationContextESt14default_deleteIS3_EEdeEv(ptr noundef nonnull align 8 dereferenceable(8) %4) #19
  ret ptr %5
}

; Function Attrs: mustprogress uwtable
define void @proj_operation_factory_context_set_allow_use_intermediate_crs(ptr noundef %0, ptr noundef %1, i32 noundef %2) #2 personality ptr @__gxx_personality_v0 {
  %4 = alloca ptr, align 8
  %5 = alloca ptr, align 8
  %6 = alloca i32, align 4
  %7 = alloca ptr, align 8
  %8 = alloca i32, align 4
  %9 = alloca ptr, align 8
  store ptr %0, ptr %4, align 8
  store ptr %1, ptr %5, align 8
  store i32 %2, ptr %6, align 4
  br label %10

10:                                               ; preds = %3
  %11 = load ptr, ptr %4, align 8
  %12 = icmp eq ptr %11, null
  br i1 %12, label %13, label %15

13:                                               ; preds = %10
  %14 = call noundef ptr @_Z18pj_get_default_ctxv()
  store ptr %14, ptr %4, align 8
  br label %15

15:                                               ; preds = %13, %10
  br label %16

16:                                               ; preds = %15
  %17 = load ptr, ptr %5, align 8
  %18 = icmp ne ptr %17, null
  br i1 %18, label %22, label %19

19:                                               ; preds = %16
  %20 = load ptr, ptr %4, align 8
  call void @_Z22proj_context_errno_setP6pj_ctxi(ptr noundef %20, i32 noundef 4097)
  %21 = load ptr, ptr %4, align 8
  call void @_ZL14proj_log_errorP6pj_ctxPKcS2_(ptr noundef %21, ptr noundef @__FUNCTION__.proj_operation_factory_context_set_allow_use_intermediate_crs, ptr noundef @.str.2)
  br label %48

22:                                               ; preds = %16
  %23 = load i32, ptr %6, align 4
  switch i32 %23, label %61 [
    i32 0, label %24
    i32 1, label %49
    i32 2, label %55
  ]

24:                                               ; preds = %22
  %25 = load ptr, ptr %5, align 8
  %26 = getelementptr inbounds %struct.PJ_OPERATION_FACTORY_CONTEXT, ptr %25, i32 0, i32 0
  %27 = invoke noundef ptr @_ZNK7dropbox6oxygen2nnISt10unique_ptrIN5osgeo4proj9operation26CoordinateOperationContextESt14default_deleteIS6_EEEptEv(ptr noundef nonnull align 8 dereferenceable(8) %26)
          to label %28 unwind label %30

28:                                               ; preds = %24
  invoke void @_ZN5osgeo4proj9operation26CoordinateOperationContext26setAllowUseIntermediateCRSENS2_18IntermediateCRSUseE(ptr noundef nonnull align 8 dereferenceable(16) %27, i32 noundef 0)
          to label %29 unwind label %30

29:                                               ; preds = %28
  br label %61

30:                                               ; preds = %59, %55, %53, %49, %28, %24
  %31 = landingpad { ptr, i32 }
          catch ptr @_ZTISt9exception
  %32 = extractvalue { ptr, i32 } %31, 0
  store ptr %32, ptr %7, align 8
  %33 = extractvalue { ptr, i32 } %31, 1
  store i32 %33, ptr %8, align 4
  br label %34

34:                                               ; preds = %30
  %35 = load i32, ptr %8, align 4
  %36 = call i32 @llvm.eh.typeid.for(ptr @_ZTISt9exception) #19
  %37 = icmp eq i32 %35, %36
  br i1 %37, label %38, label %67

38:                                               ; preds = %34
  %39 = load ptr, ptr %7, align 8
  %40 = call ptr @__cxa_begin_catch(ptr %39) #19
  store ptr %40, ptr %9, align 8
  %41 = load ptr, ptr %4, align 8
  %42 = load ptr, ptr %9, align 8
  %43 = load ptr, ptr %42, align 8
  %44 = getelementptr inbounds ptr, ptr %43, i64 2
  %45 = load ptr, ptr %44, align 8
  %46 = call noundef ptr %45(ptr noundef nonnull align 8 dereferenceable(8) %42) #19
  invoke void @_ZL14proj_log_errorP6pj_ctxPKcS2_(ptr noundef %41, ptr noundef @__FUNCTION__.proj_operation_factory_context_set_allow_use_intermediate_crs, ptr noundef %46)
          to label %47 unwind label %62

47:                                               ; preds = %38
  call void @__cxa_end_catch()
  br label %48

48:                                               ; preds = %61, %47, %19
  ret void

49:                                               ; preds = %22
  %50 = load ptr, ptr %5, align 8
  %51 = getelementptr inbounds %struct.PJ_OPERATION_FACTORY_CONTEXT, ptr %50, i32 0, i32 0
  %52 = invoke noundef ptr @_ZNK7dropbox6oxygen2nnISt10unique_ptrIN5osgeo4proj9operation26CoordinateOperationContextESt14default_deleteIS6_EEEptEv(ptr noundef nonnull align 8 dereferenceable(8) %51)
          to label %53 unwind label %30

53:                                               ; preds = %49
  invoke void @_ZN5osgeo4proj9operation26CoordinateOperationContext26setAllowUseIntermediateCRSENS2_18IntermediateCRSUseE(ptr noundef nonnull align 8 dereferenceable(16) %52, i32 noundef 1)
          to label %54 unwind label %30

54:                                               ; preds = %53
  br label %61

55:                                               ; preds = %22
  %56 = load ptr, ptr %5, align 8
  %57 = getelementptr inbounds %struct.PJ_OPERATION_FACTORY_CONTEXT, ptr %56, i32 0, i32 0
  %58 = invoke noundef ptr @_ZNK7dropbox6oxygen2nnISt10unique_ptrIN5osgeo4proj9operation26CoordinateOperationContextESt14default_deleteIS6_EEEptEv(ptr noundef nonnull align 8 dereferenceable(8) %57)
          to label %59 unwind label %30

59:                                               ; preds = %55
  invoke void @_ZN5osgeo4proj9operation26CoordinateOperationContext26setAllowUseIntermediateCRSENS2_18IntermediateCRSUseE(ptr noundef nonnull align 8 dereferenceable(16) %58, i32 noundef 2)
          to label %60 unwind label %30

60:                                               ; preds = %59
  br label %61

61:                                               ; preds = %60, %54, %29, %22
  br label %48

62:                                               ; preds = %38
  %63 = landingpad { ptr, i32 }
          cleanup
  %64 = extractvalue { ptr, i32 } %63, 0
  store ptr %64, ptr %7, align 8
  %65 = extractvalue { ptr, i32 } %63, 1
  store i32 %65, ptr %8, align 4
  invoke void @__cxa_end_catch()
          to label %66 unwind label %72

66:                                               ; preds = %62
  br label %67

67:                                               ; preds = %66, %34
  %68 = load ptr, ptr %7, align 8
  %69 = load i32, ptr %8, align 4
  %70 = insertvalue { ptr, i32 } poison, ptr %68, 0
  %71 = insertvalue { ptr, i32 } %70, i32 %69, 1
  resume { ptr, i32 } %71

72:                                               ; preds = %62
  %73 = landingpad { ptr, i32 }
          catch ptr null
  %74 = extractvalue { ptr, i32 } %73, 0
  call void @__clang_call_terminate(ptr %74) #21
  unreachable
}