; Function Attrs: mustprogress uwtable
define void @proj_operation_factory_context_set_allow_use_intermediate_crs(ptr noundef %0, ptr noundef readonly %1, i32 noundef %2) local_unnamed_addr #2 personality ptr @__gxx_personality_v0 {
  %4 = icmp eq ptr %0, null
  br i1 %4, label %5, label %7

5:                                                ; preds = %3
  %6 = tail call noundef ptr @_Z18pj_get_default_ctxv()
  br label %7

7:                                                ; preds = %3, %5
  %.0 = phi ptr [ %6, %5 ], [ %0, %3 ]
  %.not = icmp eq ptr %1, null
  br i1 %.not, label %8, label %9

8:                                                ; preds = %7
  tail call void @_Z22proj_context_errno_setP6pj_ctxi(ptr noundef %.0, i32 noundef 4097)
  tail call fastcc void @_ZL14proj_log_errorP6pj_ctxPKcS2_(ptr noundef %.0, ptr noundef nonnull @__FUNCTION__.proj_operation_factory_context_set_allow_use_intermediate_crs, ptr noundef nonnull @.str.2)
  br label %23

9:                                                ; preds = %7
  %switch = icmp ult i32 %2, 3
  br i1 %switch, label %.invoke, label %23

10:                                               ; preds = %.invoke
  %11 = landingpad { ptr, i32 }
          catch ptr @_ZTISt9exception
  %12 = extractvalue { ptr, i32 } %11, 1
  %13 = tail call i32 @llvm.eh.typeid.for(ptr nonnull @_ZTISt9exception) #27
  %14 = icmp eq i32 %12, %13
  br i1 %14, label %15, label %27

15:                                               ; preds = %10
  %16 = extractvalue { ptr, i32 } %11, 0
  %17 = tail call ptr @__cxa_begin_catch(ptr %16) #27
  %18 = load ptr, ptr %17, align 8
  %19 = getelementptr inbounds i8, ptr %18, i64 16
  %20 = load ptr, ptr %19, align 8
  %21 = tail call noundef ptr %20(ptr noundef nonnull align 8 dereferenceable(8) %17) #27
  invoke fastcc void @_ZL14proj_log_errorP6pj_ctxPKcS2_(ptr noundef %.0, ptr noundef nonnull @__FUNCTION__.proj_operation_factory_context_set_allow_use_intermediate_crs, ptr noundef %21)
          to label %22 unwind label %25

22:                                               ; preds = %15
  tail call void @__cxa_end_catch()
  br label %23

23:                                               ; preds = %9, %.invoke, %22, %8
  ret void

.invoke:                                          ; preds = %9
  %24 = load ptr, ptr %1, align 8
  invoke void @_ZN5osgeo4proj9operation26CoordinateOperationContext26setAllowUseIntermediateCRSENS2_18IntermediateCRSUseE(ptr noundef nonnull align 8 dereferenceable(16) %24, i32 noundef %2)
          to label %23 unwind label %10

25:                                               ; preds = %15
  %26 = landingpad { ptr, i32 }
          cleanup
  invoke void @__cxa_end_catch()
          to label %27 unwind label %28

27:                                               ; preds = %25, %10
  %.merged = phi { ptr, i32 } [ %26, %25 ], [ %11, %10 ]
  resume { ptr, i32 } %.merged

28:                                               ; preds = %25
  %29 = landingpad { ptr, i32 }
          catch ptr null
  %30 = extractvalue { ptr, i32 } %29, 0
  tail call void @__clang_call_terminate(ptr %30) #31
  unreachable
}